; Function Attrs: mustprogress uwtable
define noundef zeroext i1 @_ZNK32pxrInternal_v0_24__pxrReserved__16UsdSkelAnimQuery35BlendShapeWeightsMightBeTimeVaryingEv(ptr nocapture noundef nonnull readonly align 8 dereferenceable(8) %0) local_unnamed_addr #0 align 2 {
  %2 = alloca %"class.pxrInternal_v0_24__pxrReserved__::TfCallContext", align 8
  %3 = alloca %"class.pxrInternal_v0_24__pxrReserved__::TfCallContext", align 8
  %4 = load ptr, ptr %0, align 8
  %.not.i.i.not = icmp eq ptr %4, null
  br i1 %.not.i.i.not, label %5, label %.critedge.thread

.critedge.thread:                                 ; preds = %1
  call void @llvm.lifetime.start.p0(i64 40, ptr nonnull %2)
  br label %_ZNK32pxrInternal_v0_24__pxrReserved__8TfRefPtrINS_21UsdSkel_AnimQueryImplEEptEv.exit

5:                                                ; preds = %1
  store ptr @.str, ptr %3, align 8
  %6 = getelementptr inbounds nuw i8, ptr %3, i64 8
  store ptr @__func__._ZNK32pxrInternal_v0_24__pxrReserved__16UsdSkelAnimQuery35BlendShapeWeightsMightBeTimeVaryingEv, ptr %6, align 8
  %7 = getelementptr inbounds nuw i8, ptr %3, i64 16
  store i64 172, ptr %7, align 8
  %8 = getelementptr inbounds nuw i8, ptr %3, i64 24
  store ptr @__PRETTY_FUNCTION__._ZNK32pxrInternal_v0_24__pxrReserved__16UsdSkelAnimQuery35BlendShapeWeightsMightBeTimeVaryingEv, ptr %8, align 8
  %9 = getelementptr inbounds nuw i8, ptr %3, i64 32
  store i8 0, ptr %9, align 8
  %10 = tail call noundef ptr (ptr, ...) @_ZN32pxrInternal_v0_24__pxrReserved__21Tf_VerifyStringFormatEPKcz(ptr noundef nonnull @.str.2)
  %11 = call noundef zeroext i1 @_ZN32pxrInternal_v0_24__pxrReserved__21Tf_FailedVerifyHelperERKNS_13TfCallContextEPKcS4_(ptr noundef nonnull align 8 dereferenceable(33) %3, ptr noundef nonnull @.str.1, ptr noundef %10)
  br i1 %11, label %.critedge, label %22

.critedge:                                        ; preds = %5
  %.pr = load ptr, ptr %0, align 8
  call void @llvm.lifetime.start.p0(i64 40, ptr nonnull %2)
  %.not.i = icmp eq ptr %.pr, null
  br i1 %.not.i, label %12, label %_ZNK32pxrInternal_v0_24__pxrReserved__8TfRefPtrINS_21UsdSkel_AnimQueryImplEEptEv.exit

12:                                               ; preds = %.critedge
  store ptr @.str.6, ptr %2, align 8
  %13 = getelementptr inbounds nuw i8, ptr %2, i64 8
  store ptr @__func__._ZNK32pxrInternal_v0_24__pxrReserved__8TfRefPtrINS_21UsdSkel_AnimQueryImplEEptEv, ptr %13, align 8
  %14 = getelementptr inbounds nuw i8, ptr %2, i64 16
  store i64 936, ptr %14, align 8
  %15 = getelementptr inbounds nuw i8, ptr %2, i64 24
  store ptr @__PRETTY_FUNCTION__._ZNK32pxrInternal_v0_24__pxrReserved__8TfRefPtrINS_21UsdSkel_AnimQueryImplEEptEv, ptr %15, align 8
  %16 = getelementptr inbounds nuw i8, ptr %2, i64 32
  store i8 0, ptr %16, align 8
  call void @_ZN32pxrInternal_v0_24__pxrReserved__40Tf_PostNullSmartPtrDereferenceFatalErrorERKNS_13TfCallContextEPKc(ptr noundef nonnull align 8 dereferenceable(33) %2, ptr noundef nonnull @_ZTSN32pxrInternal_v0_24__pxrReserved__8TfRefPtrINS_21UsdSkel_AnimQueryImplEEE) #11
  unreachable

_ZNK32pxrInternal_v0_24__pxrReserved__8TfRefPtrINS_21UsdSkel_AnimQueryImplEEptEv.exit: ; preds = %.critedge.thread, %.critedge
  %17 = phi ptr [ %4, %.critedge.thread ], [ %.pr, %.critedge ]
  call void @llvm.lifetime.end.p0(i64 40, ptr nonnull %2)
  %18 = load ptr, ptr %17, align 8
  %19 = getelementptr inbounds i8, ptr %18, i64 96
  %20 = load ptr, ptr %19, align 8
  %21 = call noundef zeroext i1 %20(ptr noundef nonnull align 8 dereferenceable(96) %17)
  br label %22

22:                                               ; preds = %5, %_ZNK32pxrInternal_v0_24__pxrReserved__8TfRefPtrINS_21UsdSkel_AnimQueryImplEEptEv.exit
  %.0 = phi i1 [ %21, %_ZNK32pxrInternal_v0_24__pxrReserved__8TfRefPtrINS_21UsdSkel_AnimQueryImplEEptEv.exit ], [ false, %5 ]
  ret i1 %.0
}